target datalayout = "e-m:e-p270:32:32-p271:32:32-p272:64:64-i64:64-i128:128-f80:128-n8:16:32:64-S128"
target triple = "x86_64-pc-linux-gnu"

%"class.clang::ActionResult" = type { i64 }
%class.anon.1494 = type { ptr, ptr }

; Function Attrs: mustprogress nounwind uwtable
define internal void @"_ZZN5clang6Parser34ParseExprAfterUnaryExprOrTypeTraitERKNS_5TokenERbRNS_9OpaquePtrINS_8QualTypeEEERNS_11SourceRangeEENK3$_0clEv"(ptr noundef nonnull align 8 dereferenceable(16) %0) #0 align 2 {
  %2 = alloca ptr, align 8
  %3 = alloca %"class.clang::ActionResult", align 8
  store ptr %0, ptr %2, align 8
  %4 = load ptr, ptr %2, align 8
  %5 = getelementptr inbounds nuw %class.anon.1494, ptr %4, i32 0, i32 1
  %6 = load ptr, ptr %5, align 8
  %7 = call i64 @_ZN5clang6Parser19ParseCastExpressionENS0_13CastParseKindEbNS0_13TypeCastStateEbPb(ptr noundef nonnull align 8 dereferenceable(2936) %6, i32 noundef 1, i1 noundef zeroext false, i32 noundef 0, i1 noundef zeroext false, ptr noundef null)
  %8 = getelementptr inbounds nuw %"class.clang::ActionResult", ptr %3, i32 0, i32 0
  store i64 %7, ptr %8, align 8
  %9 = getelementptr inbounds nuw %class.anon.1494, ptr %4, i32 0, i32 0
  %10 = load ptr, ptr %9, align 8
  call void @llvm.memcpy.p0.p0.i64(ptr align 8 %10, ptr align 8 %3, i64 8, i1 false)
  ret void
}

; Function Attrs: mustprogress nounwind uwtable
define internal void @"_ZN4llvm12function_refIFvvEE11callback_fnIZN5clang6Parser34ParseExprAfterUnaryExprOrTypeTraitERKNS4_5TokenERbRNS4_9OpaquePtrINS4_8QualTypeEEERNS4_11SourceRangeEE3$_0EEvl"(i64 noundef %0) #0 align 2 {
  %2 = alloca i64, align 8
  store i64 %0, ptr %2, align 8
  %3 = load i64, ptr %2, align 8
  %4 = inttoptr i64 %3 to ptr
  call void @"_ZZN5clang6Parser34ParseExprAfterUnaryExprOrTypeTraitERKNS_5TokenERbRNS_9OpaquePtrINS_8QualTypeEEERNS_11SourceRangeEENK3$_0clEv"(ptr noundef nonnull align 8 dereferenceable(16) %4)
  ret void
}