; Function Attrs: mustprogress nounwind uwtable
define internal void @"_ZN4llvm12function_refIFvvEE11callback_fnIZN5clang6Parser34ParseExprAfterUnaryExprOrTypeTraitERKNS4_5TokenERbRNS4_9OpaquePtrINS4_8QualTypeEEERNS4_11SourceRangeEE3$_0EEvl"(i64 noundef %0) #0 align 2 {
  %2 = inttoptr i64 %0 to ptr
  %3 = getelementptr inbounds nuw i8, ptr %2, i64 8
  %4 = load ptr, ptr %3, align 8
  %5 = tail call i64 @_ZN5clang6Parser19ParseCastExpressionENS0_13CastParseKindEbNS0_13TypeCastStateEbPb(ptr noundef nonnull align 8 dereferenceable(2936) %4, i32 noundef 1, i1 noundef zeroext false, i32 noundef 0, i1 noundef zeroext false, ptr noundef null)
  %6 = load ptr, ptr %2, align 8
  store i64 %5, ptr %6, align 8
  ret void
}